target datalayout = "e-m:e-p270:32:32-p271:32:32-p272:64:64-i64:64-i128:128-f80:128-n8:16:32:64-S128"
target triple = "x86_64-pc-linux-gnu"

%"class.cvc5::internal::NodeTemplate.0" = type { ptr }

; Function Attrs: mustprogress uwtable
define hidden void @_ZN4cvc58internal6theory2bv5utils7mkFalseEv(ptr dead_on_unwind noalias writable sret(%"class.cvc5::internal::NodeTemplate.0") align 8 %0) #4 {
  %2 = alloca ptr, align 8
  %3 = alloca i8, align 1
  store ptr %0, ptr %2, align 8
  %4 = call noundef ptr @_ZN4cvc58internal11NodeManager9currentNMEv()
  call void @llvm.lifetime.start.p0(i64 1, ptr %3) #3
  store i8 0, ptr %3, align 1, !tbaa !8
  call void @_ZN4cvc58internal11NodeManager7mkConstIbEENS0_12NodeTemplateILb1EEERKT_(ptr dead_on_unwind writable sret(%"class.cvc5::internal::NodeTemplate.0") align 8 %0, ptr noundef nonnull align 8 dereferenceable(3560) %4, ptr noundef nonnull align 1 dereferenceable(1) %3)
  call void @llvm.lifetime.end.p0(i64 1, ptr %3) #3
  ret void
}