; Function Attrs: mustprogress uwtable
define hidden void @_ZN4cvc58internal6theory2bv5utils7mkFalseEv(ptr dead_on_unwind noalias writable sret(%"class.cvc5::internal::NodeTemplate.0") align 8 %0) local_unnamed_addr #3 {
  %2 = alloca i8, align 1
  %3 = tail call noundef ptr @_ZN4cvc58internal11NodeManager9currentNMEv()
  call void @llvm.lifetime.start.p0(i64 1, ptr nonnull %2) #22
  store i8 0, ptr %2, align 1, !tbaa !56
  call void @_ZN4cvc58internal11NodeManager7mkConstIbEENS0_12NodeTemplateILb1EEERKT_(ptr dead_on_unwind writable sret(%"class.cvc5::internal::NodeTemplate.0") align 8 %0, ptr noundef nonnull align 8 dereferenceable(3560) %3, ptr noundef nonnull align 1 dereferenceable(1) %2)
  call void @llvm.lifetime.end.p0(i64 1, ptr nonnull %2) #22
  ret void
}